target datalayout = "e-m:e-p270:32:32-p271:32:32-p272:64:64-i64:64-i128:128-f80:128-n8:16:32:64-S128"
target triple = "x86_64-unknown-linux-gnu"

%"class.v8::IndirectHandleBase" = type { ptr }
%"class.v8::Local.255" = type { %"class.v8::LocalBase.256" }
%"class.v8::LocalBase.256" = type { %"class.v8::IndirectHandleBase" }
%"class.v8::Local.263" = type { %"class.v8::LocalBase.264" }
%"class.v8::LocalBase.264" = type { %"class.v8::IndirectHandleBase" }
%"class.v8::LocalBase.321" = type { %"class.v8::IndirectHandleBase" }
%"class.v8::Local.320" = type { %"class.v8::LocalBase.321" }
%"class.v8::MaybeLocal.319" = type { %"class.v8::Local.320" }
%"class.v8::MaybeLocal.436" = type { %"class.v8::Local.263" }
%"class.v8::LocalBase.448" = type { %"class.v8::IndirectHandleBase" }
%"class.v8::Local.447" = type { %"class.v8::LocalBase.448" }

; Function Attrs: mustprogress nounwind uwtable
define dso_local ptr @_ZN4node8builtins13BuiltinLoader14CompileAndCallEN2v85LocalINS2_7ContextEEEPKciPNS3_INS2_5ValueEEEPNS_5RealmE(ptr noundef nonnull align 8 dereferenceable(48) %this, ptr %context.coerce, ptr noundef %id, i32 noundef %argc, ptr noundef %argv, ptr noundef %optional_realm) #4 align 2 {
entry:
  %this.addr.i87 = alloca ptr, align 8
  %other.addr.i88 = alloca ptr, align 8
  %slot.addr.i86 = alloca ptr, align 8
  %this.addr.i.i82 = alloca ptr, align 8
  %this.addr.i83 = alloca ptr, align 8
  %this.addr.i.i78 = alloca ptr, align 8
  %this.addr.i79 = alloca ptr, align 8
  %slot.addr.i77 = alloca ptr, align 8
  %this.addr.i.i73 = alloca ptr, align 8
  %this.addr.i74 = alloca ptr, align 8
  %this.addr.i70 = alloca ptr, align 8
  %location.addr.i71 = alloca ptr, align 8
  %this.addr.i68 = alloca ptr, align 8
  %location.addr.i = alloca ptr, align 8
  %this.addr.i66 = alloca ptr, align 8
  %other.addr.i = alloca ptr, align 8
  %retval.i64 = alloca %"class.v8::LocalBase.448", align 8
  %slot.addr.i65 = alloca ptr, align 8
  %retval.i62 = alloca %"class.v8::Local.447", align 8
  %slot.addr.i = alloca ptr, align 8
  %ref.tmp.i = alloca %"class.v8::LocalBase.448", align 8
  %isolate.addr.i61 = alloca ptr, align 8
  %index.addr.i = alloca i32, align 4
  %addr.i = alloca i64, align 8
  %isolate.addr.i60 = alloca ptr, align 8
  %this.addr.i.i56 = alloca ptr, align 8
  %this.addr.i57 = alloca ptr, align 8
  %this.addr.i.i52 = alloca ptr, align 8
  %this.addr.i53 = alloca ptr, align 8
  %this.addr.i49 = alloca ptr, align 8
  %that.i = alloca %"class.v8::Local.447", align 8
  %this.addr.i48 = alloca ptr, align 8
  %retval.i = alloca %"class.v8::Local.447", align 8
  %isolate.addr.i = alloca ptr, align 8
  %slot.i = alloca ptr, align 8
  %this.addr.i.i = alloca ptr, align 8
  %this.addr.i45 = alloca ptr, align 8
  %this.addr.i42 = alloca ptr, align 8
  %out.addr.i = alloca ptr, align 8
  %this.addr.i40 = alloca ptr, align 8
  %this.addr.i = alloca ptr, align 8
  %retval = alloca %"class.v8::MaybeLocal.436", align 8
  %context = alloca %"class.v8::Local.255", align 8
  %this.addr = alloca ptr, align 8
  %id.addr = alloca ptr, align 8
  %argc.addr = alloca i32, align 4
  %argv.addr = alloca ptr, align 8
  %optional_realm.addr = alloca ptr, align 8
  %maybe_fn = alloca %"class.v8::MaybeLocal.319", align 8
  %agg.tmp = alloca %"class.v8::Local.255", align 8
  %fn = alloca %"class.v8::Local.320", align 8
  %undefined = alloca %"class.v8::Local.263", align 8
  %agg.tmp12 = alloca %"class.v8::Local.447", align 8
  %agg.tmp23 = alloca %"class.v8::Local.255", align 8
  %agg.tmp24 = alloca %"class.v8::Local.263", align 8
  %coerce.dive = getelementptr inbounds %"class.v8::Local.255", ptr %context, i32 0, i32 0
  %coerce.dive1 = getelementptr inbounds %"class.v8::LocalBase.256", ptr %coerce.dive, i32 0, i32 0
  %coerce.dive2 = getelementptr inbounds %"class.v8::IndirectHandleBase", ptr %coerce.dive1, i32 0, i32 0
  store ptr %context.coerce, ptr %coerce.dive2, align 8
  store ptr %this, ptr %this.addr, align 8
  store ptr %id, ptr %id.addr, align 8
  store i32 %argc, ptr %argc.addr, align 4
  store ptr %argv, ptr %argv.addr, align 8
  store ptr %optional_realm, ptr %optional_realm.addr, align 8
  %this3 = load ptr, ptr %this.addr, align 8
  call void @llvm.memcpy.p0.p0.i64(ptr align 8 %agg.tmp, ptr align 8 %context, i64 8, i1 false)
  %0 = load ptr, ptr %id.addr, align 8
  %1 = load ptr, ptr %optional_realm.addr, align 8
  %coerce.dive4 = getelementptr inbounds %"class.v8::Local.255", ptr %agg.tmp, i32 0, i32 0
  %coerce.dive5 = getelementptr inbounds %"class.v8::LocalBase.256", ptr %coerce.dive4, i32 0, i32 0
  %coerce.dive6 = getelementptr inbounds %"class.v8::IndirectHandleBase", ptr %coerce.dive5, i32 0, i32 0
  %2 = load ptr, ptr %coerce.dive6, align 8
  %call = call ptr @_ZN4node8builtins13BuiltinLoader16LookupAndCompileEN2v85LocalINS2_7ContextEEEPKcPNS_5RealmE(ptr noundef nonnull align 8 dereferenceable(48) %this3, ptr %2, ptr noundef %0, ptr noundef %1)
  %coerce.dive7 = getelementptr inbounds %"class.v8::MaybeLocal.319", ptr %maybe_fn, i32 0, i32 0
  %coerce.dive8 = getelementptr inbounds %"class.v8::Local.320", ptr %coerce.dive7, i32 0, i32 0
  %coerce.dive9 = getelementptr inbounds %"class.v8::LocalBase.321", ptr %coerce.dive8, i32 0, i32 0
  %coerce.dive10 = getelementptr inbounds %"class.v8::IndirectHandleBase", ptr %coerce.dive9, i32 0, i32 0
  store ptr %call, ptr %coerce.dive10, align 8
  store ptr %fn, ptr %this.addr.i40, align 8
  %this1.i41 = load ptr, ptr %this.addr.i40, align 8
  store ptr %this1.i41, ptr %this.addr.i57, align 8
  %this1.i58 = load ptr, ptr %this.addr.i57, align 8
  store ptr %this1.i58, ptr %this.addr.i.i56, align 8
  %this1.i.i59 = load ptr, ptr %this.addr.i.i56, align 8
  store ptr null, ptr %this1.i.i59, align 8
  store ptr %maybe_fn, ptr %this.addr.i42, align 8
  store ptr %fn, ptr %out.addr.i, align 8
  %this1.i43 = load ptr, ptr %this.addr.i42, align 8
  %3 = load ptr, ptr %out.addr.i, align 8
  call void @llvm.memcpy.p0.p0.i64(ptr align 8 %3, ptr align 8 %this1.i43, i64 8, i1 false)
  store ptr %this1.i43, ptr %this.addr.i79, align 8
  %this1.i80 = load ptr, ptr %this.addr.i79, align 8
  store ptr %this1.i80, ptr %this.addr.i.i78, align 8
  %this1.i.i81 = load ptr, ptr %this.addr.i.i78, align 8
  %4 = load ptr, ptr %this1.i.i81, align 8
  %cmp.i.i = icmp eq ptr %4, null
  %lnot.i = xor i1 %cmp.i.i, true
  br i1 %lnot.i, label %if.end, label %if.then

if.then:                                          ; preds = %entry
  store ptr %retval, ptr %this.addr.i45, align 8
  %this1.i46 = load ptr, ptr %this.addr.i45, align 8
  call void @llvm.memset.p0.i64(ptr align 8 %this1.i46, i8 0, i64 8, i1 false)
  store ptr %this1.i46, ptr %this.addr.i.i, align 8
  %this1.i.i = load ptr, ptr %this.addr.i.i, align 8
  store ptr %this1.i.i, ptr %this.addr.i53, align 8
  %this1.i54 = load ptr, ptr %this.addr.i53, align 8
  store ptr %this1.i54, ptr %this.addr.i.i52, align 8
  %this1.i.i55 = load ptr, ptr %this.addr.i.i52, align 8
  store ptr null, ptr %this1.i.i55, align 8
  br label %return

if.end:                                           ; preds = %entry
  store ptr %context, ptr %this.addr.i, align 8
  %this1.i = load ptr, ptr %this.addr.i, align 8
  store ptr %this1.i, ptr %this.addr.i74, align 8
  %this1.i75 = load ptr, ptr %this.addr.i74, align 8
  store ptr %this1.i75, ptr %this.addr.i.i73, align 8
  %this1.i.i76 = load ptr, ptr %this.addr.i.i73, align 8
  %5 = load ptr, ptr %this1.i.i76, align 8
  store ptr %5, ptr %slot.addr.i77, align 8
  %6 = load ptr, ptr %slot.addr.i77, align 8
  %call14 = call noundef ptr @_ZN2v87Context10GetIsolateEv(ptr noundef nonnull align 1 dereferenceable(1) %6)
  store ptr %call14, ptr %isolate.addr.i, align 8
  %7 = load ptr, ptr %isolate.addr.i, align 8
  store ptr %7, ptr %isolate.addr.i60, align 8
  %8 = load ptr, ptr %isolate.addr.i, align 8
  store ptr %8, ptr %isolate.addr.i61, align 8
  store i32 4, ptr %index.addr.i, align 4
  %9 = load ptr, ptr %isolate.addr.i61, align 8
  %10 = ptrtoint ptr %9 to i64
  %add.i = add i64 %10, 576
  %11 = load i32, ptr %index.addr.i, align 4
  %mul.i = mul nsw i32 %11, 8
  %conv.i = sext i32 %mul.i to i64
  %add1.i = add i64 %add.i, %conv.i
  store i64 %add1.i, ptr %addr.i, align 8
  %12 = load i64, ptr %addr.i, align 8
  %13 = inttoptr i64 %12 to ptr
  store ptr %13, ptr %slot.i, align 8
  %14 = load ptr, ptr %slot.i, align 8
  store ptr %14, ptr %slot.addr.i, align 8
  %15 = load ptr, ptr %slot.addr.i, align 8
  store ptr %15, ptr %slot.addr.i65, align 8
  %16 = load ptr, ptr %slot.addr.i65, align 8
  store ptr %retval.i64, ptr %this.addr.i68, align 8
  store ptr %16, ptr %location.addr.i, align 8
  %this1.i69 = load ptr, ptr %this.addr.i68, align 8
  %17 = load ptr, ptr %location.addr.i, align 8
  store ptr %this1.i69, ptr %this.addr.i70, align 8
  store ptr %17, ptr %location.addr.i71, align 8
  %this1.i72 = load ptr, ptr %this.addr.i70, align 8
  %18 = load ptr, ptr %location.addr.i71, align 8
  store ptr %18, ptr %this1.i72, align 8
  %19 = load ptr, ptr %retval.i64, align 8
  store ptr %19, ptr %ref.tmp.i, align 8
  store ptr %retval.i62, ptr %this.addr.i66, align 8
  store ptr %ref.tmp.i, ptr %other.addr.i, align 8
  %this1.i67 = load ptr, ptr %this.addr.i66, align 8
  %20 = load ptr, ptr %other.addr.i, align 8
  call void @llvm.memcpy.p0.p0.i64(ptr align 8 %this1.i67, ptr align 8 %20, i64 8, i1 false)
  %21 = load ptr, ptr %retval.i62, align 8
  store ptr %21, ptr %retval.i, align 8
  %22 = load ptr, ptr %retval.i, align 8
  %coerce.dive16 = getelementptr inbounds %"class.v8::Local.447", ptr %agg.tmp12, i32 0, i32 0
  %coerce.dive17 = getelementptr inbounds %"class.v8::LocalBase.448", ptr %coerce.dive16, i32 0, i32 0
  %coerce.dive18 = getelementptr inbounds %"class.v8::IndirectHandleBase", ptr %coerce.dive17, i32 0, i32 0
  store ptr %22, ptr %coerce.dive18, align 8
  %coerce.dive19 = getelementptr inbounds %"class.v8::Local.447", ptr %agg.tmp12, i32 0, i32 0
  %coerce.dive20 = getelementptr inbounds %"class.v8::LocalBase.448", ptr %coerce.dive19, i32 0, i32 0
  %coerce.dive21 = getelementptr inbounds %"class.v8::IndirectHandleBase", ptr %coerce.dive20, i32 0, i32 0
  %23 = load ptr, ptr %coerce.dive21, align 8
  store ptr %23, ptr %that.i, align 8
  store ptr %undefined, ptr %this.addr.i48, align 8
  %this3.i = load ptr, ptr %this.addr.i48, align 8
  store ptr %this3.i, ptr %this.addr.i87, align 8
  store ptr %that.i, ptr %other.addr.i88, align 8
  %this1.i89 = load ptr, ptr %this.addr.i87, align 8
  %24 = load ptr, ptr %other.addr.i88, align 8
  call void @llvm.memcpy.p0.p0.i64(ptr align 8 %this1.i89, ptr align 8 %24, i64 8, i1 false)
  store ptr %fn, ptr %this.addr.i49, align 8
  %this1.i50 = load ptr, ptr %this.addr.i49, align 8
  store ptr %this1.i50, ptr %this.addr.i83, align 8
  %this1.i84 = load ptr, ptr %this.addr.i83, align 8
  store ptr %this1.i84, ptr %this.addr.i.i82, align 8
  %this1.i.i85 = load ptr, ptr %this.addr.i.i82, align 8
  %25 = load ptr, ptr %this1.i.i85, align 8
  store ptr %25, ptr %slot.addr.i86, align 8
  %26 = load ptr, ptr %slot.addr.i86, align 8
  call void @llvm.memcpy.p0.p0.i64(ptr align 8 %agg.tmp23, ptr align 8 %context, i64 8, i1 false)
  call void @llvm.memcpy.p0.p0.i64(ptr align 8 %agg.tmp24, ptr align 8 %undefined, i64 8, i1 false)
  %27 = load i32, ptr %argc.addr, align 4
  %28 = load ptr, ptr %argv.addr, align 8
  %coerce.dive25 = getelementptr inbounds %"class.v8::Local.255", ptr %agg.tmp23, i32 0, i32 0
  %coerce.dive26 = getelementptr inbounds %"class.v8::LocalBase.256", ptr %coerce.dive25, i32 0, i32 0
  %coerce.dive27 = getelementptr inbounds %"class.v8::IndirectHandleBase", ptr %coerce.dive26, i32 0, i32 0
  %29 = load ptr, ptr %coerce.dive27, align 8
  %coerce.dive28 = getelementptr inbounds %"class.v8::Local.263", ptr %agg.tmp24, i32 0, i32 0
  %coerce.dive29 = getelementptr inbounds %"class.v8::LocalBase.264", ptr %coerce.dive28, i32 0, i32 0
  %coerce.dive30 = getelementptr inbounds %"class.v8::IndirectHandleBase", ptr %coerce.dive29, i32 0, i32 0
  %30 = load ptr, ptr %coerce.dive30, align 8
  %call31 = call ptr @_ZN2v88Function4CallENS_5LocalINS_7ContextEEENS1_INS_5ValueEEEiPS5_(ptr noundef nonnull align 1 dereferenceable(1) %26, ptr %29, ptr %30, i32 noundef %27, ptr noundef %28)
  %coerce.dive32 = getelementptr inbounds %"class.v8::MaybeLocal.436", ptr %retval, i32 0, i32 0
  %coerce.dive33 = getelementptr inbounds %"class.v8::Local.263", ptr %coerce.dive32, i32 0, i32 0
  %coerce.dive34 = getelementptr inbounds %"class.v8::LocalBase.264", ptr %coerce.dive33, i32 0, i32 0
  %coerce.dive35 = getelementptr inbounds %"class.v8::IndirectHandleBase", ptr %coerce.dive34, i32 0, i32 0
  store ptr %call31, ptr %coerce.dive35, align 8
  br label %return

return:                                           ; preds = %if.end, %if.then
  %coerce.dive36 = getelementptr inbounds %"class.v8::MaybeLocal.436", ptr %retval, i32 0, i32 0
  %coerce.dive37 = getelementptr inbounds %"class.v8::Local.263", ptr %coerce.dive36, i32 0, i32 0
  %coerce.dive38 = getelementptr inbounds %"class.v8::LocalBase.264", ptr %coerce.dive37, i32 0, i32 0
  %coerce.dive39 = getelementptr inbounds %"class.v8::IndirectHandleBase", ptr %coerce.dive38, i32 0, i32 0
  %31 = load ptr, ptr %coerce.dive39, align 8
  ret ptr %31
}