; Function Attrs: mustprogress nounwind uwtable
define dso_local ptr @_ZN4node8builtins13BuiltinLoader14CompileAndCallEN2v85LocalINS2_7ContextEEEPKciPNS3_INS2_5ValueEEEPNS_5RealmE(ptr nocapture noundef nonnull readonly align 8 dereferenceable(48) %this, ptr %context.coerce, ptr noundef %id, i32 noundef %argc, ptr noundef %argv, ptr noundef %optional_realm) local_unnamed_addr #3 align 2 {
entry:
  %call = tail call ptr @_ZN4node8builtins13BuiltinLoader16LookupAndCompileEN2v85LocalINS2_7ContextEEEPKcPNS_5RealmE(ptr noundef nonnull align 8 dereferenceable(48) %this, ptr %context.coerce, ptr noundef %id, ptr noundef %optional_realm)
  %cmp.i.i.not = icmp eq ptr %call, null
  br i1 %cmp.i.i.not, label %return, label %if.end

if.end:                                           ; preds = %entry
  %call14 = tail call noundef ptr @_ZN2v87Context10GetIsolateEv(ptr noundef nonnull align 1 dereferenceable(1) %context.coerce) #23
  %0 = ptrtoint ptr %call14 to i64
  %add1.i = add i64 %0, 608
  %1 = inttoptr i64 %add1.i to ptr
  %call31 = tail call ptr @_ZN2v88Function4CallENS_5LocalINS_7ContextEEENS1_INS_5ValueEEEiPS5_(ptr noundef nonnull align 1 dereferenceable(1) %call, ptr nonnull %context.coerce, ptr %1, i32 noundef %argc, ptr noundef %argv) #23
  br label %return

return:                                           ; preds = %entry, %if.end
  %retval.sroa.0.0 = phi ptr [ %call31, %if.end ], [ null, %entry ]
  ret ptr %retval.sroa.0.0
}